(dp1
S'session'
p2
(dp3
S'picture'
p4
Vhttps://lh3.googleusercontent.com/-XdUIqdMkCWA/AAAAAAAAAAI/AAAAAAAAAAA/4252rscbv5M/photo.jpg
p5
sS'_accessed_time'
p6
F1477258637.71106
sS'email'
p7
Vshafaaftest@gmail.com
p8
sS'_creation_time'
p9
F1477258579.5346279
sS'name'
p10
V
ss.