(dp1
S'session'
p2
(dp3
S'picture'
p4
Vhttps://lh4.googleusercontent.com/-oFneeT9bF6I/AAAAAAAAAAI/AAAAAAAAC2w/uCDjhFZZkXc/photo.jpg
p5
sS'_accessed_time'
p6
F1480826744.942908
sS'email'
p7
Vshafaaf.hossain@gmail.com
p8
sS'_creation_time'
p9
F1480826493.4143269
sS'name'
p10
VShafaaf Hossain
p11
ss.